(dp1
S'OriginalConfig'
p2
ccopy_reg
_reconstructor
p3
(cWMCore.Configuration
Configuration
p4
c__builtin__
object
p5
NtRp6
(dp7
S'Site'
p8
g3
(cWMCore.Configuration
ConfigSection
p9
g5
NtRp10
(dp11
S'_internal_skipChecks'
p12
I00
sS'_internal_documentation'
p13
S''
sS'_internal_settings'
p14
c__builtin__
set
p15
((lp16
S'storageSite'
p17
atRp18
sS'_internal_name'
p19
g8
sS'_internal_docstrings'
p20
(dp21
sS'_internal_children'
p22
g15
((ltRp23
sg17
S'T2_CN_Beijing'
p24
sS'_internal_parent_ref'
p25
NsbsS'_internal_sections'
p26
(lp27
S'General'
p28
aS'JobType'
p29
aS'Data'
p30
ag8
aS'User'
p31
aS'Debug'
p32
asg28
g3
(g9
g5
NtRp33
(dp34
S'transferLogs'
p35
I01
sg12
I00
sg13
S''
sg14
g15
((lp36
g35
aS'workArea'
p37
aS'requestName'
p38
atRp39
sg19
g28
sg20
(dp40
sg22
g15
((ltRp41
sg38
S'WToLNu_HT1200to2500'
p42
sg25
Nsg37
g42
sbsS'_internal_webapps'
p43
(lp44
sg31
g3
(g9
g5
NtRp45
(dp46
g12
I00
sg13
S''
sg14
g15
((ltRp47
sg19
g31
sg20
(dp48
sg22
g15
((ltRp49
sg25
NsbsS'_internal_components'
p50
(lp51
sg32
g3
(g9
g5
NtRp52
(dp53
g12
I00
sg13
S''
sg14
g15
((ltRp54
sg19
g32
sg20
(dp55
sg22
g15
((ltRp56
sg25
Nsbsg30
g3
(g9
g5
NtRp57
(dp58
S'inputDataset'
p59
S'/WJetsToLNu_HT-1200To2500_TuneCUETP8M1_13TeV-madgraphMLM-pythia8/RunIISummer16MiniAODv3-PUMoriond17_94X_mcRun2_asymptotic_v3-v2/MINIAODSIM'
p60
sS'allowNonValidInputDataset'
p61
I01
sg12
I00
sS'splitting'
p62
S'FileBased'
p63
sS'unitsPerJob'
p64
I1
sg13
S''
sg14
g15
((lp65
g59
ag61
aS'totalUnits'
p66
ag64
aS'inputDBS'
p67
ag62
aS'outputDatasetTag'
p68
aS'outLFNDirBase'
p69
atRp70
sg19
g30
sg67
S'global'
p71
sg20
(dp72
sg68
g42
sg22
g15
((ltRp73
sg69
S'/store/user/tayu/'
p74
sg25
Nsg66
I40000
sbsg29
g3
(g9
g5
NtRp75
(dp76
g12
I00
sS'maxMemoryMB'
p77
I2000
sg13
S''
sg14
g15
((lp78
S'psetName'
p79
aS'pluginName'
p80
aS'pyCfgParams'
p81
aS'sendExternalFolder'
p82
ag77
atRp83
sg19
g29
sg20
(dp84
sg81
(lp85
S'ofName=WToLNu_HT1200to2500'
p86
asg80
S'Analysis'
p87
sg22
g15
((ltRp88
sg79
S'/afs/cern.ch/work/t/tayu/private/Tprime_dineutrino_2016/CMSSW_9_4_9_cand2/src/BSMFramework/BSM3G_TNT_Maker/python/miniAOD_MC2016.py'
p89
sg25
Nsg82
I01
sbsbsS'voGroup'
p90
S''
sS'Server'
p91
S'cmsweb.cern.ch'
p92
sS'instance'
p93
S'prod'
p94
sS'RequestName'
p95
V181203_131526:tayu_crab_WToLNu_HT1200to2500
p96
sS'voRole'
p97
S'NULL'
p98
sS'Port'
p99
S''
s.