(dp1
S'OriginalConfig'
p2
ccopy_reg
_reconstructor
p3
(cWMCore.Configuration
Configuration
p4
c__builtin__
object
p5
NtRp6
(dp7
S'Site'
p8
g3
(cWMCore.Configuration
ConfigSection
p9
g5
NtRp10
(dp11
S'_internal_skipChecks'
p12
I00
sS'_internal_documentation'
p13
S''
sS'_internal_settings'
p14
c__builtin__
set
p15
((lp16
S'storageSite'
p17
atRp18
sS'_internal_name'
p19
g8
sS'_internal_docstrings'
p20
(dp21
sS'_internal_children'
p22
g15
((ltRp23
sg17
S'T2_CN_Beijing'
p24
sS'_internal_parent_ref'
p25
NsbsS'_internal_sections'
p26
(lp27
S'General'
p28
aS'JobType'
p29
aS'Data'
p30
ag8
aS'User'
p31
aS'Debug'
p32
asg28
g3
(g9
g5
NtRp33
(dp34
g12
I00
sg13
S''
sg14
g15
((lp35
S'workArea'
p36
aS'requestName'
p37
atRp38
sg19
g28
sg20
(dp39
sg22
g15
((ltRp40
sg37
S'Aug17V1_METB'
p41
sg25
Nsg36
g41
sbsS'_internal_webapps'
p42
(lp43
sg31
g3
(g9
g5
NtRp44
(dp45
g12
I00
sg13
S''
sg14
g15
((ltRp46
sg19
g31
sg20
(dp47
sg22
g15
((ltRp48
sg25
NsbsS'_internal_components'
p49
(lp50
sg32
g3
(g9
g5
NtRp51
(dp52
g12
I00
sg13
S''
sg14
g15
((ltRp53
sg19
g32
sg20
(dp54
sg22
g15
((ltRp55
sg25
Nsbsg30
g3
(g9
g5
NtRp56
(dp57
S'inputDataset'
p58
S'/MET/Run2016B-07Aug17_ver2-v1/MINIAOD'
p59
sg12
I00
sS'splitting'
p60
S'LumiBased'
p61
sS'unitsPerJob'
p62
I30
sg13
S''
sg14
g15
((lp63
g58
ag62
ag60
aS'inputDBS'
p64
aS'lumiMask'
p65
aS'outLFNDirBase'
p66
atRp67
sg19
g30
sg64
S'global'
p68
sg20
(dp69
sg22
g15
((ltRp70
sg66
S'/store/user/tayu/'
p71
sg25
Nsg65
S'/afs/cern.ch/work/t/tayu/private/Tprime_dineutrino_2016/CMSSW_9_4_9_cand2/src/BSMFramework/BSM3G_TNT_Maker/data/JSON/Cert_271036-284044_13TeV_23Sep2016ReReco_Collisions16_JSON.txt'
p72
sbsg29
g3
(g9
g5
NtRp73
(dp74
g12
I00
sS'pyCfgParams'
p75
(lp76
S'optionJECAK4PFchsDATA1=BSMFramework/BSM3G_TNT_Maker/data/JEC/DATA/Summer16_07Aug2017BCD_V11_DATA/Summer16_07Aug2017BCD_V11_DATA_L1FastJet_AK4PFchs.txt'
p77
aS'optionJECAK4PFchsDATA2=BSMFramework/BSM3G_TNT_Maker/data/JEC/DATA/Summer16_07Aug2017BCD_V11_DATA/Summer16_07Aug2017BCD_V11_DATA_L2Relative_AK4PFchs.txt'
p78
aS'optionJECAK4PFchsDATA3=BSMFramework/BSM3G_TNT_Maker/data/JEC/DATA/Summer16_07Aug2017BCD_V11_DATA/Summer16_07Aug2017BCD_V11_DATA_L3Absolute_AK4PFchs.txt'
p79
aS'optionJECAK4PFchsDATA4=BSMFramework/BSM3G_TNT_Maker/data/JEC/DATA/Summer16_07Aug2017BCD_V11_DATA/Summer16_07Aug2017BCD_V11_DATA_L2L3Residual_AK4PFchs.txt'
p80
aS'optionJECAK4PFchsDATAUnc=BSMFramework/BSM3G_TNT_Maker/data/JEC/DATA/Summer16_07Aug2017BCD_V11_DATA/Summer16_07Aug2017BCD_V11_DATA_Uncertainty_AK4PFchs.txt'
p81
aS'optionJECAK4PFPuppiDATA1=BSMFramework/BSM3G_TNT_Maker/data/JEC/DATA/Summer16_07Aug2017BCD_V11_DATA/Summer16_07Aug2017BCD_V11_DATA_L1FastJet_AK4PFPuppi.txt'
p82
aS'optionJECAK4PFPuppiDATA2=BSMFramework/BSM3G_TNT_Maker/data/JEC/DATA/Summer16_07Aug2017BCD_V11_DATA/Summer16_07Aug2017BCD_V11_DATA_L2Relative_AK4PFPuppi.txt'
p83
aS'optionJECAK4PFPuppiDATA3=BSMFramework/BSM3G_TNT_Maker/data/JEC/DATA/Summer16_07Aug2017BCD_V11_DATA/Summer16_07Aug2017BCD_V11_DATA_L3Absolute_AK4PFPuppi.txt'
p84
aS'optionJECAK4PFPuppiDATA4=BSMFramework/BSM3G_TNT_Maker/data/JEC/DATA/Summer16_07Aug2017BCD_V11_DATA/Summer16_07Aug2017BCD_V11_DATA_L2L3Residual_AK4PFPuppi.txt'
p85
aS'optionJECAK4PFPuppiDATAUnc=BSMFramework/BSM3G_TNT_Maker/data/JEC/DATA/Summer16_07Aug2017BCD_V11_DATA/Summer16_07Aug2017BCD_V11_DATA_Uncertainty_AK4PFPuppi.txt'
p86
aS'optionJECAK8PFchsDATA1=BSMFramework/BSM3G_TNT_Maker/data/JEC/DATA/Summer16_07Aug2017BCD_V11_DATA/Summer16_07Aug2017BCD_V11_DATA_L1FastJet_AK8PFchs.txt'
p87
aS'optionJECAK8PFchsDATA2=BSMFramework/BSM3G_TNT_Maker/data/JEC/DATA/Summer16_07Aug2017BCD_V11_DATA/Summer16_07Aug2017BCD_V11_DATA_L2Relative_AK8PFchs.txt'
p88
aS'optionJECAK8PFchsDATA3=BSMFramework/BSM3G_TNT_Maker/data/JEC/DATA/Summer16_07Aug2017BCD_V11_DATA/Summer16_07Aug2017BCD_V11_DATA_L3Absolute_AK8PFchs.txt'
p89
aS'optionJECAK8PFchsDATA4=BSMFramework/BSM3G_TNT_Maker/data/JEC/DATA/Summer16_07Aug2017BCD_V11_DATA/Summer16_07Aug2017BCD_V11_DATA_L2L3Residual_AK8PFchs.txt'
p90
aS'optionJECAK8PFchsDATAUnc=BSMFramework/BSM3G_TNT_Maker/data/JEC/DATA/Summer16_07Aug2017BCD_V11_DATA/Summer16_07Aug2017BCD_V11_DATA_Uncertainty_AK8PFchs.txt'
p91
aS'ofName=Aug17V1_METB'
p92
asg13
S''
sg14
g15
((lp93
S'psetName'
p94
aS'pluginName'
p95
ag75
aS'allowUndistributedCMSSW'
p96
aS'sendExternalFolder'
p97
atRp98
sg19
g29
sg20
(dp99
sg95
S'Analysis'
p100
sg22
g15
((ltRp101
sg96
I01
sg94
S'/afs/cern.ch/work/t/tayu/private/Tprime_dineutrino_2016/CMSSW_9_4_9_cand2/src/BSMFramework/BSM3G_TNT_Maker/python/miniAOD_RD2016.py'
p102
sg25
Nsg97
I01
sbsbsS'voGroup'
p103
S''
sS'Server'
p104
S'cmsweb.cern.ch'
p105
sS'instance'
p106
S'prod'
p107
sS'RequestName'
p108
V181204_141507:tayu_crab_Aug17V1_METB
p109
sS'voRole'
p110
S'NULL'
p111
sS'Port'
p112
S''
s.